target datalayout = "e-m:e-p270:32:32-p271:32:32-p272:64:64-i64:64-i128:128-f80:128-n8:16:32:64-S128"
target triple = "x86_64-pc-linux-gnu"

%struct.H5O_msg_class_t = type { i32, ptr, i64, i32, ptr, ptr, ptr, ptr, ptr, ptr, ptr, ptr, ptr, ptr, ptr, ptr, ptr, ptr, ptr, ptr }
%struct.H5O_t = type { %struct.H5C_cache_entry_t, i64, i64, i8, i64, i8, i32, i8, i8, i64, i64, i64, i64, i32, i32, i64, i64, ptr, i64, i64, i64, i64, ptr, i8, ptr }
%struct.H5C_cache_entry_t = type { ptr, i64, i64, ptr, i8, ptr, i8, i8, i8, i8, i32, i8, i8, i8, i8, i8, i32, ptr, i32, i32, i32, i32, i32, i8, i8, ptr, ptr, ptr, ptr, ptr, ptr, i8, i32, i8, i64, ptr, i64, i64, i32, i8, i32, i32, i8, ptr, ptr, ptr }
%struct.H5O_mesg_t = type { ptr, i8, i8, i32, i32, ptr, ptr, i64 }
%struct.H5O_shared_t = type { i32, ptr, i32, %union.anon }
%union.anon = type { %struct.H5O_mesg_loc_t }
%struct.H5O_mesg_loc_t = type { i32, i64 }

@H5O_init_g = external global i8, align 1
@H5_libterm_g = external global i8, align 1
@.str = private unnamed_addr constant [104 x i8] c"generated/home/dtcxzyw/WorkSpace/Projects/compilers/llvm-opt-benchmark/bench/hdf5/hdf5/src/H5Omessage.c\00", align 1
@H5E_CANTINIT_g = external global i64, align 8
@H5E_OHDR_g = external global i64, align 8
@H5E_WRITEERROR_g = external global i64, align 8
@H5O_msg_class_g = external constant [26 x ptr], align 16
@H5E_CANTGET_g = external global i64, align 8
@.str.37 = private unnamed_addr constant [34 x i8] c"unable to retrieve creation index\00", align 1
@__func__.H5O__msg_alloc = private unnamed_addr constant [15 x i8] c"H5O__msg_alloc\00", align 1
@.str.40 = private unnamed_addr constant [39 x i8] c"error determining if message is shared\00", align 1
@H5E_LINKCOUNT_g = external global i64, align 8
@.str.41 = private unnamed_addr constant [42 x i8] c"unable to adjust shared message ref count\00", align 1
@.str.42 = private unnamed_addr constant [46 x i8] c"error determining if message should be shared\00", align 1
@.str.43 = private unnamed_addr constant [37 x i8] c"unable to allocate space for message\00", align 1

; Function Attrs: nounwind uwtable
define i32 @H5O_msg_is_shared(i32 noundef %0, ptr noundef %1) #0 {
  %3 = alloca i32, align 4
  %4 = alloca ptr, align 8
  %5 = alloca ptr, align 8
  %6 = alloca i32, align 4
  store i32 %0, ptr %3, align 4, !tbaa !8
  store ptr %1, ptr %4, align 8, !tbaa !10
  call void @llvm.lifetime.start.p0(i64 8, ptr %5) #5
  call void @llvm.lifetime.start.p0(i64 4, ptr %6) #5
  store i32 -1, ptr %6, align 4, !tbaa !8
  %7 = load i8, ptr @H5O_init_g, align 1, !tbaa !13, !range !15, !noundef !16
  %8 = trunc i8 %7 to i1
  br i1 %8, label %13, label %9

9:                                                ; preds = %2
  %10 = load i8, ptr @H5_libterm_g, align 1, !tbaa !13, !range !15, !noundef !16
  %11 = trunc i8 %10 to i1
  %12 = xor i1 %11, true
  br label %13

13:                                               ; preds = %9, %2
  %14 = phi i1 [ true, %2 ], [ %12, %9 ]
  %15 = xor i1 %14, true
  %16 = xor i1 %15, true
  %17 = zext i1 %16 to i32
  %18 = sext i32 %17 to i64
  %19 = call i64 @llvm.expect.i64(i64 %18, i64 1)
  %20 = icmp ne i64 %19, 0
  br i1 %20, label %21, label %46

21:                                               ; preds = %13
  %22 = load i32, ptr %3, align 4, !tbaa !8
  %23 = zext i32 %22 to i64
  %24 = getelementptr inbounds nuw [26 x ptr], ptr @H5O_msg_class_g, i64 0, i64 %23
  %25 = load ptr, ptr %24, align 8, !tbaa !23
  store ptr %25, ptr %5, align 8, !tbaa !23
  %26 = load ptr, ptr %5, align 8, !tbaa !23
  %27 = getelementptr inbounds nuw %struct.H5O_msg_class_t, ptr %26, i32 0, i32 3
  %28 = load i32, ptr %27, align 8, !tbaa !95
  %29 = and i32 %28, 1
  %30 = icmp ne i32 %29, 0
  br i1 %30, label %31, label %44

31:                                               ; preds = %21
  %32 = load ptr, ptr %4, align 8, !tbaa !10
  %33 = getelementptr inbounds nuw %struct.H5O_shared_t, ptr %32, i32 0, i32 0
  %34 = load i32, ptr %33, align 8, !tbaa !64
  %35 = icmp eq i32 %34, 1
  br i1 %35, label %41, label %36

36:                                               ; preds = %31
  %37 = load ptr, ptr %4, align 8, !tbaa !10
  %38 = getelementptr inbounds nuw %struct.H5O_shared_t, ptr %37, i32 0, i32 0
  %39 = load i32, ptr %38, align 8, !tbaa !64
  %40 = icmp eq i32 %39, 2
  br label %41

41:                                               ; preds = %36, %31
  %42 = phi i1 [ true, %31 ], [ %40, %36 ]
  %43 = select i1 %42, i32 1, i32 0
  store i32 %43, ptr %6, align 4, !tbaa !8
  br label %45

44:                                               ; preds = %21
  store i32 0, ptr %6, align 4, !tbaa !8
  br label %45

45:                                               ; preds = %44, %41
  br label %46

46:                                               ; preds = %45, %13
  %47 = load i32, ptr %6, align 4, !tbaa !8
  call void @llvm.lifetime.end.p0(i64 4, ptr %6) #5
  call void @llvm.lifetime.end.p0(i64 8, ptr %5) #5
  ret i32 %47
}

; Function Attrs: nounwind uwtable
define i32 @H5O__msg_alloc(ptr noundef %0, ptr noundef %1, ptr noundef %2, ptr noundef %3, ptr noundef %4, ptr noundef %5) #0 {
  %7 = alloca ptr, align 8
  %8 = alloca ptr, align 8
  %9 = alloca ptr, align 8
  %10 = alloca ptr, align 8
  %11 = alloca ptr, align 8
  %12 = alloca ptr, align 8
  %13 = alloca i64, align 8
  %14 = alloca i32, align 4
  %15 = alloca i32, align 4
  %16 = alloca i8, align 1
  store ptr %0, ptr %7, align 8, !tbaa !22
  store ptr %1, ptr %8, align 8, !tbaa !11
  store ptr %2, ptr %9, align 8, !tbaa !23
  store ptr %3, ptr %10, align 8, !tbaa !25
  store ptr %4, ptr %11, align 8, !tbaa !10
  store ptr %5, ptr %12, align 8, !tbaa !27
  call void @llvm.lifetime.start.p0(i64 8, ptr %13) #5
  call void @llvm.lifetime.start.p0(i64 4, ptr %14) #5
  call void @llvm.lifetime.start.p0(i64 4, ptr %15) #5
  store i32 0, ptr %15, align 4, !tbaa !8
  call void @llvm.lifetime.start.p0(i64 1, ptr %16) #5
  store i8 0, ptr %16, align 1, !tbaa !13
  %17 = load i8, ptr @H5O_init_g, align 1, !tbaa !13, !range !15, !noundef !16
  %18 = trunc i8 %17 to i1
  br i1 %18, label %23, label %19

19:                                               ; preds = %6
  %20 = load i8, ptr @H5_libterm_g, align 1, !tbaa !13, !range !15, !noundef !16
  %21 = trunc i8 %20 to i1
  %22 = xor i1 %21, true
  br label %23

23:                                               ; preds = %19, %6
  %24 = phi i1 [ true, %6 ], [ %22, %19 ]
  %25 = xor i1 %24, true
  %26 = xor i1 %25, true
  %27 = zext i1 %26 to i32
  %28 = sext i32 %27 to i64
  %29 = call i64 @llvm.expect.i64(i64 %28, i64 1)
  %30 = icmp ne i64 %29, 0
  br i1 %30, label %31, label %196

31:                                               ; preds = %23
  %32 = load ptr, ptr %9, align 8, !tbaa !23
  %33 = getelementptr inbounds nuw %struct.H5O_msg_class_t, ptr %32, i32 0, i32 0
  %34 = load i32, ptr %33, align 8, !tbaa !29
  %35 = load ptr, ptr %11, align 8, !tbaa !10
  %36 = call i32 @H5O_msg_is_shared(i32 noundef %34, ptr noundef %35)
  store i32 %36, ptr %14, align 4, !tbaa !8
  %37 = icmp slt i32 %36, 0
  br i1 %37, label %38, label %57

38:                                               ; preds = %31
  br label %39

39:                                               ; preds = %38
  br label %40

40:                                               ; preds = %39
  br label %41

41:                                               ; preds = %40
  %42 = load i64, ptr @H5E_OHDR_g, align 8, !tbaa !17
  %43 = load i64, ptr @H5E_CANTGET_g, align 8, !tbaa !17
  %44 = call i32 (ptr, ptr, i32, i64, i64, ptr, ...) @H5E_printf_stack(ptr noundef @.str, ptr noundef @__func__.H5O__msg_alloc, i32 noundef 1715, i64 noundef %42, i64 noundef %43, ptr noundef @.str.40)
  br label %45

45:                                               ; preds = %41
  br label %46

46:                                               ; preds = %45
  store i8 1, ptr %16, align 1, !tbaa !13
  %47 = load i8, ptr %16, align 1, !tbaa !13, !range !15, !noundef !16
  %48 = trunc i8 %47 to i1
  %49 = zext i1 %48 to i8
  store i8 %49, ptr %16, align 1, !tbaa !13
  br label %50

50:                                               ; preds = %46
  br label %51

51:                                               ; preds = %50
  br label %52

52:                                               ; preds = %51
  store i32 -1, ptr %15, align 4, !tbaa !8
  br label %195

53:                                               ; No predecessors!
  br label %54

54:                                               ; preds = %53
  br label %55

55:                                               ; preds = %54
  br label %56

56:                                               ; preds = %55
  br label %128

57:                                               ; preds = %31
  %58 = load i32, ptr %14, align 4, !tbaa !8
  %59 = icmp sgt i32 %58, 0
  br i1 %59, label %60, label %97

60:                                               ; preds = %57
  %61 = load ptr, ptr %9, align 8, !tbaa !23
  %62 = getelementptr inbounds nuw %struct.H5O_msg_class_t, ptr %61, i32 0, i32 11
  %63 = load ptr, ptr %62, align 8, !tbaa !32
  %64 = icmp ne ptr %63, null
  br i1 %64, label %65, label %93

65:                                               ; preds = %60
  %66 = load ptr, ptr %9, align 8, !tbaa !23
  %67 = getelementptr inbounds nuw %struct.H5O_msg_class_t, ptr %66, i32 0, i32 11
  %68 = load ptr, ptr %67, align 8, !tbaa !32
  %69 = load ptr, ptr %7, align 8, !tbaa !22
  %70 = load ptr, ptr %8, align 8, !tbaa !11
  %71 = load ptr, ptr %11, align 8, !tbaa !10
  %72 = call i32 %68(ptr noundef %69, ptr noundef %70, ptr noundef %71)
  %73 = icmp slt i32 %72, 0
  br i1 %73, label %74, label %93

74:                                               ; preds = %65
  br label %75

75:                                               ; preds = %74
  br label %76

76:                                               ; preds = %75
  br label %77

77:                                               ; preds = %76
  %78 = load i64, ptr @H5E_OHDR_g, align 8, !tbaa !17
  %79 = load i64, ptr @H5E_LINKCOUNT_g, align 8, !tbaa !17
  %80 = call i32 (ptr, ptr, i32, i64, i64, ptr, ...) @H5E_printf_stack(ptr noundef @.str, ptr noundef @__func__.H5O__msg_alloc, i32 noundef 1719, i64 noundef %78, i64 noundef %79, ptr noundef @.str.41)
  br label %81

81:                                               ; preds = %77
  br label %82

82:                                               ; preds = %81
  store i8 1, ptr %16, align 1, !tbaa !13
  %83 = load i8, ptr %16, align 1, !tbaa !13, !range !15, !noundef !16
  %84 = trunc i8 %83 to i1
  %85 = zext i1 %84 to i8
  store i8 %85, ptr %16, align 1, !tbaa !13
  br label %86

86:                                               ; preds = %82
  br label %87

87:                                               ; preds = %86
  br label %88

88:                                               ; preds = %87
  store i32 -1, ptr %15, align 4, !tbaa !8
  br label %195

89:                                               ; No predecessors!
  br label %90

90:                                               ; preds = %89
  br label %91

91:                                               ; preds = %90
  br label %92

92:                                               ; preds = %91
  br label %93

93:                                               ; preds = %92, %65, %60
  %94 = load ptr, ptr %10, align 8, !tbaa !25
  %95 = load i32, ptr %94, align 4, !tbaa !8
  %96 = or i32 %95, 2
  store i32 %96, ptr %94, align 4, !tbaa !8
  br label %127

97:                                               ; preds = %57
  %98 = load ptr, ptr %7, align 8, !tbaa !22
  %99 = load ptr, ptr %8, align 8, !tbaa !11
  %100 = load ptr, ptr %9, align 8, !tbaa !23
  %101 = getelementptr inbounds nuw %struct.H5O_msg_class_t, ptr %100, i32 0, i32 0
  %102 = load i32, ptr %101, align 8, !tbaa !29
  %103 = load ptr, ptr %11, align 8, !tbaa !10
  %104 = load ptr, ptr %10, align 8, !tbaa !25
  %105 = call i32 @H5SM_try_share(ptr noundef %98, ptr noundef %99, i32 noundef 0, i32 noundef %102, ptr noundef %103, ptr noundef %104)
  %106 = icmp slt i32 %105, 0
  br i1 %106, label %107, label %126

107:                                              ; preds = %97
  br label %108

108:                                              ; preds = %107
  br label %109

109:                                              ; preds = %108
  br label %110

110:                                              ; preds = %109
  %111 = load i64, ptr @H5E_OHDR_g, align 8, !tbaa !17
  %112 = load i64, ptr @H5E_WRITEERROR_g, align 8, !tbaa !17
  %113 = call i32 (ptr, ptr, i32, i64, i64, ptr, ...) @H5E_printf_stack(ptr noundef @.str, ptr noundef @__func__.H5O__msg_alloc, i32 noundef 1725, i64 noundef %111, i64 noundef %112, ptr noundef @.str.42)
  br label %114

114:                                              ; preds = %110
  br label %115

115:                                              ; preds = %114
  store i8 1, ptr %16, align 1, !tbaa !13
  %116 = load i8, ptr %16, align 1, !tbaa !13, !range !15, !noundef !16
  %117 = trunc i8 %116 to i1
  %118 = zext i1 %117 to i8
  store i8 %118, ptr %16, align 1, !tbaa !13
  br label %119

119:                                              ; preds = %115
  br label %120

120:                                              ; preds = %119
  br label %121

121:                                              ; preds = %120
  store i32 -1, ptr %15, align 4, !tbaa !8
  br label %195

122:                                              ; No predecessors!
  br label %123

123:                                              ; preds = %122
  br label %124

124:                                              ; preds = %123
  br label %125

125:                                              ; preds = %124
  br label %126

126:                                              ; preds = %125, %97
  br label %127

127:                                              ; preds = %126, %93
  br label %128

128:                                              ; preds = %127, %56
  %129 = load ptr, ptr %7, align 8, !tbaa !22
  %130 = load ptr, ptr %8, align 8, !tbaa !11
  %131 = load ptr, ptr %9, align 8, !tbaa !23
  %132 = load ptr, ptr %11, align 8, !tbaa !10
  %133 = call i32 @H5O__alloc(ptr noundef %129, ptr noundef %130, ptr noundef %131, ptr noundef %132, ptr noundef %13)
  %134 = icmp slt i32 %133, 0
  br i1 %134, label %135, label %154

135:                                              ; preds = %128
  br label %136

136:                                              ; preds = %135
  br label %137

137:                                              ; preds = %136
  br label %138

138:                                              ; preds = %137
  %139 = load i64, ptr @H5E_OHDR_g, align 8, !tbaa !17
  %140 = load i64, ptr @H5E_CANTINIT_g, align 8, !tbaa !17
  %141 = call i32 (ptr, ptr, i32, i64, i64, ptr, ...) @H5E_printf_stack(ptr noundef @.str, ptr noundef @__func__.H5O__msg_alloc, i32 noundef 1730, i64 noundef %139, i64 noundef %140, ptr noundef @.str.43)
  br label %142

142:                                              ; preds = %138
  br label %143

143:                                              ; preds = %142
  store i8 1, ptr %16, align 1, !tbaa !13
  %144 = load i8, ptr %16, align 1, !tbaa !13, !range !15, !noundef !16
  %145 = trunc i8 %144 to i1
  %146 = zext i1 %145 to i8
  store i8 %146, ptr %16, align 1, !tbaa !13
  br label %147

147:                                              ; preds = %143
  br label %148

148:                                              ; preds = %147
  br label %149

149:                                              ; preds = %148
  store i32 -1, ptr %15, align 4, !tbaa !8
  br label %195

150:                                              ; No predecessors!
  br label %151

151:                                              ; preds = %150
  br label %152

152:                                              ; preds = %151
  br label %153

153:                                              ; preds = %152
  br label %154

154:                                              ; preds = %153, %128
  %155 = load ptr, ptr %9, align 8, !tbaa !23
  %156 = getelementptr inbounds nuw %struct.H5O_msg_class_t, ptr %155, i32 0, i32 17
  %157 = load ptr, ptr %156, align 8, !tbaa !33
  %158 = icmp ne ptr %157, null
  br i1 %158, label %159, label %192

159:                                              ; preds = %154
  %160 = load ptr, ptr %9, align 8, !tbaa !23
  %161 = getelementptr inbounds nuw %struct.H5O_msg_class_t, ptr %160, i32 0, i32 17
  %162 = load ptr, ptr %161, align 8, !tbaa !33
  %163 = load ptr, ptr %11, align 8, !tbaa !10
  %164 = load ptr, ptr %8, align 8, !tbaa !11
  %165 = getelementptr inbounds nuw %struct.H5O_t, ptr %164, i32 0, i32 17
  %166 = load ptr, ptr %165, align 8, !tbaa !34
  %167 = load i64, ptr %13, align 8, !tbaa !17
  %168 = getelementptr inbounds nuw %struct.H5O_mesg_t, ptr %166, i64 %167
  %169 = getelementptr inbounds nuw %struct.H5O_mesg_t, ptr %168, i32 0, i32 3
  %170 = call i32 %162(ptr noundef %163, ptr noundef %169)
  %171 = icmp slt i32 %170, 0
  br i1 %171, label %172, label %191

172:                                              ; preds = %159
  br label %173

173:                                              ; preds = %172
  br label %174

174:                                              ; preds = %173
  br label %175

175:                                              ; preds = %174
  %176 = load i64, ptr @H5E_OHDR_g, align 8, !tbaa !17
  %177 = load i64, ptr @H5E_CANTGET_g, align 8, !tbaa !17
  %178 = call i32 (ptr, ptr, i32, i64, i64, ptr, ...) @H5E_printf_stack(ptr noundef @.str, ptr noundef @__func__.H5O__msg_alloc, i32 noundef 1736, i64 noundef %176, i64 noundef %177, ptr noundef @.str.37)
  br label %179

179:                                              ; preds = %175
  br label %180

180:                                              ; preds = %179
  store i8 1, ptr %16, align 1, !tbaa !13
  %181 = load i8, ptr %16, align 1, !tbaa !13, !range !15, !noundef !16
  %182 = trunc i8 %181 to i1
  %183 = zext i1 %182 to i8
  store i8 %183, ptr %16, align 1, !tbaa !13
  br label %184

184:                                              ; preds = %180
  br label %185

185:                                              ; preds = %184
  br label %186

186:                                              ; preds = %185
  store i32 -1, ptr %15, align 4, !tbaa !8
  br label %195

187:                                              ; No predecessors!
  br label %188

188:                                              ; preds = %187
  br label %189

189:                                              ; preds = %188
  br label %190

190:                                              ; preds = %189
  br label %191

191:                                              ; preds = %190, %159
  br label %192

192:                                              ; preds = %191, %154
  %193 = load i64, ptr %13, align 8, !tbaa !17
  %194 = load ptr, ptr %12, align 8, !tbaa !27
  store i64 %193, ptr %194, align 8, !tbaa !17
  br label %195

195:                                              ; preds = %192, %186, %149, %121, %88, %52
  br label %196

196:                                              ; preds = %195, %23
  %197 = load i32, ptr %15, align 4, !tbaa !8
  call void @llvm.lifetime.end.p0(i64 1, ptr %16) #5
  call void @llvm.lifetime.end.p0(i64 4, ptr %15) #5
  call void @llvm.lifetime.end.p0(i64 4, ptr %14) #5
  call void @llvm.lifetime.end.p0(i64 8, ptr %13) #5
  ret i32 %197
}