; Function Attrs: nounwind uwtable
define range(i32 -1, 1) i32 @H5O__msg_alloc(ptr noundef %0, ptr noundef %1, ptr noundef %2, ptr noundef %3, ptr noundef %4, ptr noundef writeonly captures(none) %5) local_unnamed_addr #0 {
  %7 = alloca i64, align 8
  call void @llvm.lifetime.start.p0(i64 8, ptr nonnull %7) #7
  %8 = load i8, ptr @H5O_init_g, align 1, !tbaa !3, !range !7, !noundef !8
  %9 = trunc nuw i8 %8 to i1
  %10 = load i8, ptr @H5_libterm_g, align 1, !range !7
  %11 = trunc nuw i8 %10 to i1
  %12 = xor i1 %11, true
  %13 = select i1 %9, i1 true, i1 %12
  br i1 %13, label %14, label %66, !prof !9

14:                                               ; preds = %6
  %15 = load i32, ptr %2, align 8, !tbaa !20
  %16 = zext i32 %15 to i64
  %17 = getelementptr inbounds nuw [26 x ptr], ptr @H5O_msg_class_g, i64 0, i64 %16
  %18 = load ptr, ptr %17, align 8, !tbaa !16
  %19 = getelementptr inbounds nuw i8, ptr %18, i64 24
  %20 = load i32, ptr %19, align 8, !tbaa !23
  %21 = and i32 %20, 1
  %.not.i = icmp eq i32 %21, 0
  br i1 %.not.i, label %H5O_msg_is_shared.exit.thread, label %H5O_msg_is_shared.exit

H5O_msg_is_shared.exit:                           ; preds = %14
  %22 = load i32, ptr %4, align 8, !tbaa !24
  %23 = add i32 %22, -3
  %narrow.i = icmp ult i32 %23, -2
  br i1 %narrow.i, label %H5O_msg_is_shared.exit.thread, label %24

24:                                               ; preds = %H5O_msg_is_shared.exit
  %25 = getelementptr inbounds nuw i8, ptr %2, i64 88
  %26 = load ptr, ptr %25, align 8, !tbaa !26
  %.not31 = icmp eq ptr %26, null
  br i1 %.not31, label %34, label %27

27:                                               ; preds = %24
  %28 = tail call i32 %26(ptr noundef %0, ptr noundef %1, ptr noundef nonnull %4) #7
  %29 = icmp slt i32 %28, 0
  br i1 %29, label %30, label %34

30:                                               ; preds = %27
  %31 = load i64, ptr @H5E_OHDR_g, align 8, !tbaa !10
  %32 = load i64, ptr @H5E_LINKCOUNT_g, align 8, !tbaa !10
  %33 = tail call i32 (ptr, ptr, i32, i64, i64, ptr, ...) @H5E_printf_stack(ptr noundef nonnull @.str, ptr noundef nonnull @__func__.H5O__msg_alloc, i32 noundef 1719, i64 noundef %31, i64 noundef %32, ptr noundef nonnull @.str.41) #7
  br label %66

34:                                               ; preds = %27, %24
  %35 = load i32, ptr %3, align 4, !tbaa !18
  %36 = or i32 %35, 2
  store i32 %36, ptr %3, align 4, !tbaa !18
  br label %43

H5O_msg_is_shared.exit.thread:                    ; preds = %14, %H5O_msg_is_shared.exit
  %37 = tail call i32 @H5SM_try_share(ptr noundef %0, ptr noundef %1, i32 noundef 0, i32 noundef %15, ptr noundef %4, ptr noundef %3) #7
  %38 = icmp slt i32 %37, 0
  br i1 %38, label %39, label %43

39:                                               ; preds = %H5O_msg_is_shared.exit.thread
  %40 = load i64, ptr @H5E_OHDR_g, align 8, !tbaa !10
  %41 = load i64, ptr @H5E_WRITEERROR_g, align 8, !tbaa !10
  %42 = tail call i32 (ptr, ptr, i32, i64, i64, ptr, ...) @H5E_printf_stack(ptr noundef nonnull @.str, ptr noundef nonnull @__func__.H5O__msg_alloc, i32 noundef 1725, i64 noundef %40, i64 noundef %41, ptr noundef nonnull @.str.42) #7
  br label %66

43:                                               ; preds = %34, %H5O_msg_is_shared.exit.thread
  %44 = call i32 @H5O__alloc(ptr noundef %0, ptr noundef %1, ptr noundef nonnull %2, ptr noundef %4, ptr noundef nonnull %7) #7
  %45 = icmp slt i32 %44, 0
  br i1 %45, label %46, label %50

46:                                               ; preds = %43
  %47 = load i64, ptr @H5E_OHDR_g, align 8, !tbaa !10
  %48 = load i64, ptr @H5E_CANTINIT_g, align 8, !tbaa !10
  %49 = call i32 (ptr, ptr, i32, i64, i64, ptr, ...) @H5E_printf_stack(ptr noundef nonnull @.str, ptr noundef nonnull @__func__.H5O__msg_alloc, i32 noundef 1730, i64 noundef %47, i64 noundef %48, ptr noundef nonnull @.str.43) #7
  br label %66

50:                                               ; preds = %43
  %51 = getelementptr inbounds nuw i8, ptr %2, i64 136
  %52 = load ptr, ptr %51, align 8, !tbaa !27
  %.not32 = icmp eq ptr %52, null
  br i1 %.not32, label %64, label %53

53:                                               ; preds = %50
  %54 = getelementptr inbounds nuw i8, ptr %1, i64 352
  %55 = load ptr, ptr %54, align 8, !tbaa !28
  %56 = load i64, ptr %7, align 8, !tbaa !10
  %57 = getelementptr inbounds nuw %struct.H5O_mesg_t, ptr %55, i64 %56, i32 3
  %58 = call i32 %52(ptr noundef %4, ptr noundef nonnull %57) #7
  %59 = icmp slt i32 %58, 0
  br i1 %59, label %60, label %64

60:                                               ; preds = %53
  %61 = load i64, ptr @H5E_OHDR_g, align 8, !tbaa !10
  %62 = load i64, ptr @H5E_CANTGET_g, align 8, !tbaa !10
  %63 = call i32 (ptr, ptr, i32, i64, i64, ptr, ...) @H5E_printf_stack(ptr noundef nonnull @.str, ptr noundef nonnull @__func__.H5O__msg_alloc, i32 noundef 1736, i64 noundef %61, i64 noundef %62, ptr noundef nonnull @.str.37) #7
  br label %66

64:                                               ; preds = %53, %50
  %65 = load i64, ptr %7, align 8, !tbaa !10
  store i64 %65, ptr %5, align 8, !tbaa !10
  br label %66

66:                                               ; preds = %30, %39, %46, %60, %64, %6
  %.0 = phi i32 [ -1, %30 ], [ -1, %46 ], [ -1, %60 ], [ 0, %64 ], [ -1, %39 ], [ 0, %6 ]
  call void @llvm.lifetime.end.p0(i64 8, ptr nonnull %7) #7
  ret i32 %.0
}